target datalayout = "e-m:e-p270:32:32-p271:32:32-p272:64:64-i64:64-i128:128-f80:128-n8:16:32:64-S128"
target triple = "x86_64-pc-linux-gnu"

%"class.cv::Mat" = type { i32, i32, i32, i32, ptr, ptr, ptr, ptr, ptr, ptr, %"struct.cv::MatSize", %"struct.cv::MatStep" }
%"struct.cv::MatSize" = type { ptr }
%"struct.cv::MatStep" = type { ptr, [2 x i64] }
%"class.cv::Size_" = type { i32, i32 }
%"struct.cv::impl::(anonymous namespace)::CvtHelper.2" = type { %"class.cv::Mat", %"class.cv::Mat", i32, i32, %"class.cv::Size_" }

; Function Attrs: inlinehint mustprogress nounwind uwtable
define internal void @_ZN2cv4impl12_GLOBAL__N_19CvtHelperINS1_3SetILi3ELin1ELin1EEENS3_ILi3ELi4ELin1EEENS3_ILi0ELi5ELin1EEELNS1_10SizePolicyE4EED2Ev(ptr noundef nonnull align 8 dereferenceable(208) %0) unnamed_addr #5 align 2 {
  %2 = alloca ptr, align 8
  store ptr %0, ptr %2, align 8, !tbaa !150
  %3 = load ptr, ptr %2, align 8
  %4 = getelementptr inbounds nuw %"struct.cv::impl::(anonymous namespace)::CvtHelper.2", ptr %3, i32 0, i32 1
  call void @_ZN2cv3MatD1Ev(ptr noundef nonnull align 8 dereferenceable(96) %4) #12
  %5 = getelementptr inbounds nuw %"struct.cv::impl::(anonymous namespace)::CvtHelper.2", ptr %3, i32 0, i32 0
  call void @_ZN2cv3MatD1Ev(ptr noundef nonnull align 8 dereferenceable(96) %5) #12
  ret void
}

; Function Attrs: inlinehint mustprogress nounwind uwtable
define linkonce_odr hidden noundef i64 @_ZNK2cv7MatStepcvmEv(ptr noundef nonnull align 8 dereferenceable(24) %0) #5 comdat align 2 {
  %2 = alloca ptr, align 8
  store ptr %0, ptr %2, align 8, !tbaa !142
  %3 = load ptr, ptr %2, align 8
  %4 = getelementptr inbounds nuw %"struct.cv::MatStep", ptr %3, i32 0, i32 1
  %5 = getelementptr inbounds [2 x i64], ptr %4, i64 0, i64 0
  %6 = load i64, ptr %5, align 8, !tbaa !3
  ret i64 %6
}

; Function Attrs: mustprogress uwtable
define hidden void @_ZN2cv15cvtColorLuv2BGRERKNS_11_InputArrayERKNS_12_OutputArrayEibb(ptr noundef nonnull align 8 dereferenceable(24) %0, ptr noundef nonnull align 8 dereferenceable(24) %1, i32 noundef %2, i1 noundef zeroext %3, i1 noundef zeroext %4) #1 personality ptr @__gxx_personality_v0 {
  %6 = alloca ptr, align 8
  %7 = alloca ptr, align 8
  %8 = alloca i32, align 4
  %9 = alloca i8, align 1
  %10 = alloca i8, align 1
  %11 = alloca %"struct.cv::impl::(anonymous namespace)::CvtHelper.2", align 8
  %12 = alloca ptr, align 8
  %13 = alloca i32, align 4
  store ptr %0, ptr %6, align 8, !tbaa !121
  store ptr %1, ptr %7, align 8, !tbaa !123
  store i32 %2, ptr %8, align 4, !tbaa !20
  %14 = zext i1 %3 to i8
  store i8 %14, ptr %9, align 1, !tbaa !21
  %15 = zext i1 %4 to i8
  store i8 %15, ptr %10, align 1, !tbaa !21
  %16 = load i32, ptr %8, align 4, !tbaa !20
  %17 = icmp sle i32 %16, 0
  br i1 %17, label %18, label %19

18:                                               ; preds = %5
  store i32 3, ptr %8, align 4, !tbaa !20
  br label %19

19:                                               ; preds = %18, %5
  call void @llvm.lifetime.start.p0(i64 208, ptr %11) #12
  %20 = load ptr, ptr %6, align 8, !tbaa !121
  %21 = load ptr, ptr %7, align 8, !tbaa !123
  %22 = load i32, ptr %8, align 4, !tbaa !20
  call void @_ZN2cv4impl12_GLOBAL__N_19CvtHelperINS1_3SetILi3ELin1ELin1EEENS3_ILi3ELi4ELin1EEENS3_ILi0ELi5ELin1EEELNS1_10SizePolicyE4EEC2ERKNS_11_InputArrayERKNS_12_OutputArrayEi(ptr noundef nonnull align 8 dereferenceable(208) %11, ptr noundef nonnull align 8 dereferenceable(24) %20, ptr noundef nonnull align 8 dereferenceable(24) %21, i32 noundef %22)
  %23 = getelementptr inbounds nuw %"struct.cv::impl::(anonymous namespace)::CvtHelper.2", ptr %11, i32 0, i32 0
  %24 = getelementptr inbounds nuw %"class.cv::Mat", ptr %23, i32 0, i32 4
  %25 = load ptr, ptr %24, align 8, !tbaa !144
  %26 = getelementptr inbounds nuw %"struct.cv::impl::(anonymous namespace)::CvtHelper.2", ptr %11, i32 0, i32 0
  %27 = getelementptr inbounds nuw %"class.cv::Mat", ptr %26, i32 0, i32 11
  %28 = invoke noundef i64 @_ZNK2cv7MatStepcvmEv(ptr noundef nonnull align 8 dereferenceable(24) %27)
          to label %29 unwind label %51

29:                                               ; preds = %19
  %30 = getelementptr inbounds nuw %"struct.cv::impl::(anonymous namespace)::CvtHelper.2", ptr %11, i32 0, i32 1
  %31 = getelementptr inbounds nuw %"class.cv::Mat", ptr %30, i32 0, i32 4
  %32 = load ptr, ptr %31, align 8, !tbaa !146
  %33 = getelementptr inbounds nuw %"struct.cv::impl::(anonymous namespace)::CvtHelper.2", ptr %11, i32 0, i32 1
  %34 = getelementptr inbounds nuw %"class.cv::Mat", ptr %33, i32 0, i32 11
  %35 = invoke noundef i64 @_ZNK2cv7MatStepcvmEv(ptr noundef nonnull align 8 dereferenceable(24) %34)
          to label %36 unwind label %51

36:                                               ; preds = %29
  %37 = getelementptr inbounds nuw %"struct.cv::impl::(anonymous namespace)::CvtHelper.2", ptr %11, i32 0, i32 0
  %38 = getelementptr inbounds nuw %"class.cv::Mat", ptr %37, i32 0, i32 3
  %39 = load i32, ptr %38, align 4, !tbaa !147
  %40 = getelementptr inbounds nuw %"struct.cv::impl::(anonymous namespace)::CvtHelper.2", ptr %11, i32 0, i32 0
  %41 = getelementptr inbounds nuw %"class.cv::Mat", ptr %40, i32 0, i32 2
  %42 = load i32, ptr %41, align 8, !tbaa !148
  %43 = getelementptr inbounds nuw %"struct.cv::impl::(anonymous namespace)::CvtHelper.2", ptr %11, i32 0, i32 2
  %44 = load i32, ptr %43, align 8, !tbaa !149
  %45 = load i32, ptr %8, align 4, !tbaa !20
  %46 = load i8, ptr %9, align 1, !tbaa !21, !range !23, !noundef !24
  %47 = trunc i8 %46 to i1
  %48 = load i8, ptr %10, align 1, !tbaa !21, !range !23, !noundef !24
  %49 = trunc i8 %48 to i1
  invoke void @_ZN2cv3hal11cvtLabtoBGREPKhmPhmiiiibbb(ptr noundef %25, i64 noundef %28, ptr noundef %32, i64 noundef %35, i32 noundef %39, i32 noundef %42, i32 noundef %44, i32 noundef %45, i1 noundef zeroext %47, i1 noundef zeroext false, i1 noundef zeroext %49)
          to label %50 unwind label %51

50:                                               ; preds = %36
  call void @_ZN2cv4impl12_GLOBAL__N_19CvtHelperINS1_3SetILi3ELin1ELin1EEENS3_ILi3ELi4ELin1EEENS3_ILi0ELi5ELin1EEELNS1_10SizePolicyE4EED2Ev(ptr noundef nonnull align 8 dereferenceable(208) %11) #12
  call void @llvm.lifetime.end.p0(i64 208, ptr %11) #12
  ret void

51:                                               ; preds = %36, %29, %19
  %52 = landingpad { ptr, i32 }
          cleanup
  %53 = extractvalue { ptr, i32 } %52, 0
  store ptr %53, ptr %12, align 8
  %54 = extractvalue { ptr, i32 } %52, 1
  store i32 %54, ptr %13, align 4
  call void @_ZN2cv4impl12_GLOBAL__N_19CvtHelperINS1_3SetILi3ELin1ELin1EEENS3_ILi3ELi4ELin1EEENS3_ILi0ELi5ELin1EEELNS1_10SizePolicyE4EED2Ev(ptr noundef nonnull align 8 dereferenceable(208) %11) #12
  call void @llvm.lifetime.end.p0(i64 208, ptr %11) #12
  br label %55

55:                                               ; preds = %51
  %56 = load ptr, ptr %12, align 8
  %57 = load i32, ptr %13, align 4
  %58 = insertvalue { ptr, i32 } poison, ptr %56, 0
  %59 = insertvalue { ptr, i32 } %58, i32 %57, 1
  resume { ptr, i32 } %59
}